; Function Attrs: mustprogress uwtable
define hidden void @_ZN3sat12ddfw_wrapper16do_parallel_syncEv(ptr noundef nonnull align 8 dereferenceable(472) %0) local_unnamed_addr #3 align 2 {
  %2 = getelementptr inbounds nuw i8, ptr %0, i64 448
  %3 = load ptr, ptr %2, align 8, !tbaa !10
  %4 = tail call noundef zeroext i1 @_ZN3sat8parallel11from_solverERNS_14i_local_searchE(ptr noundef nonnull align 8 dereferenceable(176) %3, ptr noundef nonnull align 8 dereferenceable(8) %0)
  br i1 %4, label %5, label %7

5:                                                ; preds = %1
  %6 = load ptr, ptr %2, align 8, !tbaa !10
  tail call void @_ZN3sat8parallel9to_solverERNS_14i_local_searchE(ptr noundef nonnull align 8 dereferenceable(176) %6, ptr noundef nonnull align 8 dereferenceable(8) %0)
  br label %7

7:                                                ; preds = %5, %1
  %8 = getelementptr inbounds nuw i8, ptr %0, i64 456
  %9 = load i32, ptr %8, align 8, !tbaa !67
  %10 = add i32 %9, 1
  store i32 %10, ptr %8, align 8, !tbaa !67
  %11 = getelementptr inbounds nuw i8, ptr %0, i64 464
  %12 = load i64, ptr %11, align 8, !tbaa !68
  %13 = mul i64 %12, 3
  %14 = lshr i64 %13, 1
  store i64 %14, ptr %11, align 8, !tbaa !68
  ret void
}